; Function Attrs: mustprogress nofree norecurse nosync nounwind willreturn memory(readwrite, inaccessiblemem: none) uwtable
define void @dtls1_set_message_header(ptr noundef readonly captures(none) %0, i8 noundef zeroext %1, i64 noundef %2, i64 noundef %3, i64 noundef %4) local_unnamed_addr #6 {
  %6 = icmp eq i64 %3, 0
  %7 = getelementptr inbounds nuw i8, ptr %0, i64 1264
  %8 = load ptr, ptr %7, align 8, !tbaa !74
  br i1 %6, label %.split10, label %.split

.split:                                           ; preds = %5
  %9 = getelementptr inbounds nuw i8, ptr %8, i64 268
  %10 = load i16, ptr %9, align 4, !tbaa !133
  br label %15

.split10:                                         ; preds = %5
  %11 = getelementptr inbounds nuw i8, ptr %8, i64 270
  %12 = load i16, ptr %11, align 2, !tbaa !117
  %13 = getelementptr inbounds nuw i8, ptr %8, i64 268
  store i16 %12, ptr %13, align 4, !tbaa !133
  %14 = add i16 %12, 1
  store i16 %14, ptr %11, align 2, !tbaa !117
  br label %15

15:                                               ; preds = %.split, %.split10
  %.sink13 = phi i16 [ %10, %.split ], [ %12, %.split10 ]
  %.sink = phi i64 [ %3, %.split ], [ 0, %.split10 ]
  %16 = getelementptr inbounds nuw i8, ptr %8, i64 312
  store i8 %1, ptr %16, align 8, !tbaa !94
  %17 = getelementptr inbounds nuw i8, ptr %8, i64 320
  store i64 %2, ptr %17, align 8, !tbaa !96
  %18 = getelementptr inbounds nuw i8, ptr %8, i64 328
  store i16 %.sink13, ptr %18, align 8, !tbaa !97
  %19 = getelementptr inbounds nuw i8, ptr %8, i64 336
  store i64 %.sink, ptr %19, align 8, !tbaa !89
  %20 = getelementptr inbounds nuw i8, ptr %8, i64 344
  store i64 %4, ptr %20, align 8, !tbaa !90
  ret void
}